; Function Attrs: mustprogress nofree nounwind willreturn memory(write, argmem: none, inaccessiblemem: readwrite) uwtable
define noalias noundef ptr @Fxch_SCHashTableCreate(ptr noundef %0, i32 noundef %1) local_unnamed_addr #0 {
  %3 = tail call noalias dereferenceable_or_null(56) ptr @calloc(i64 noundef 1, i64 noundef 56) #15
  %4 = add nsw i32 %1, 1
  %5 = icmp ult i32 %4, 2
  %6 = tail call range(i32 0, 33) i32 @llvm.ctlz.i32(i32 %1, i1 true)
  %7 = sub nuw nsw i32 32, %6
  %.09.i = select i1 %5, i32 %4, i32 %7
  store ptr %0, ptr %3, align 8, !tbaa !3
  %8 = shl nuw i32 1, %.09.i
  %9 = add nsw i32 %8, -1
  %10 = getelementptr inbounds nuw i8, ptr %3, i64 20
  store i32 %9, ptr %10, align 4, !tbaa !13
  %11 = zext i32 %8 to i64
  %12 = tail call noalias ptr @calloc(i64 noundef %11, i64 noundef 16) #15
  %13 = getelementptr inbounds nuw i8, ptr %3, i64 8
  store ptr %12, ptr %13, align 8, !tbaa !14
  ret ptr %3
}